target datalayout = "e-m:e-p270:32:32-p271:32:32-p272:64:64-i64:64-i128:128-f80:128-n8:16:32:64-S128"
target triple = "x86_64-pc-linux-gnu"

%struct.H5T_atomic_t = type { i32, i64, i64, i32, i32, %union.anon }
%union.anon = type { %struct.anon.0 }
%struct.anon.0 = type { i64, i64, i64, i64, i64, i64, i32, i32 }

@H5T_init_g = external global i8, align 1
@H5_libterm_g = external global i8, align 1

; Function Attrs: nounwind uwtable
define i32 @H5T__conv_float_find_special(ptr noundef %0, ptr noundef %1, ptr noundef %2) #0 {
  %4 = alloca ptr, align 8
  %5 = alloca ptr, align 8
  %6 = alloca ptr, align 8
  %7 = alloca i64, align 8
  %8 = alloca i32, align 4
  %9 = alloca i8, align 1
  store ptr %0, ptr %4, align 8, !tbaa !39
  store ptr %1, ptr %5, align 8, !tbaa !58
  store ptr %2, ptr %6, align 8, !tbaa !60
  call void @llvm.lifetime.start.p0(i64 8, ptr %7) #9
  call void @llvm.lifetime.start.p0(i64 4, ptr %8) #9
  store i32 0, ptr %8, align 4, !tbaa !15
  %10 = load i8, ptr @H5T_init_g, align 1, !tbaa !17, !range !19, !noundef !20
  %11 = trunc i8 %10 to i1
  br i1 %11, label %16, label %12

12:                                               ; preds = %3
  %13 = load i8, ptr @H5_libterm_g, align 1, !tbaa !17, !range !19, !noundef !20
  %14 = trunc i8 %13 to i1
  %15 = xor i1 %14, true
  br label %16

16:                                               ; preds = %12, %3
  %17 = phi i1 [ true, %3 ], [ %15, %12 ]
  %18 = xor i1 %17, true
  %19 = xor i1 %18, true
  %20 = zext i1 %19 to i32
  %21 = sext i32 %20 to i64
  %22 = call i64 @llvm.expect.i64(i64 %21, i64 1)
  %23 = icmp ne i64 %22, 0
  br i1 %23, label %24, label %127

24:                                               ; preds = %16
  %25 = load ptr, ptr %4, align 8, !tbaa !39
  %26 = load ptr, ptr %5, align 8, !tbaa !58
  %27 = getelementptr inbounds nuw %struct.H5T_atomic_t, ptr %26, i32 0, i32 5
  %28 = getelementptr inbounds nuw %struct.anon.0, ptr %27, i32 0, i32 0
  %29 = load i64, ptr %28, align 8, !tbaa !33
  %30 = call i64 @H5T__bit_get_d(ptr noundef %25, i64 noundef %29, i64 noundef 1)
  store i64 %30, ptr %7, align 8, !tbaa !12
  %31 = load ptr, ptr %4, align 8, !tbaa !39
  %32 = load ptr, ptr %5, align 8, !tbaa !58
  %33 = getelementptr inbounds nuw %struct.H5T_atomic_t, ptr %32, i32 0, i32 5
  %34 = getelementptr inbounds nuw %struct.anon.0, ptr %33, i32 0, i32 4
  %35 = load i64, ptr %34, align 8, !tbaa !33
  %36 = load ptr, ptr %5, align 8, !tbaa !58
  %37 = getelementptr inbounds nuw %struct.H5T_atomic_t, ptr %36, i32 0, i32 5
  %38 = getelementptr inbounds nuw %struct.anon.0, ptr %37, i32 0, i32 5
  %39 = load i64, ptr %38, align 8, !tbaa !33
  %40 = call i64 @H5T__bit_find(ptr noundef %31, i64 noundef %35, i64 noundef %39, i32 noundef 0, i1 noundef zeroext true)
  %41 = icmp slt i64 %40, 0
  br i1 %41, label %42, label %76

42:                                               ; preds = %24
  %43 = load ptr, ptr %4, align 8, !tbaa !39
  %44 = load ptr, ptr %5, align 8, !tbaa !58
  %45 = getelementptr inbounds nuw %struct.H5T_atomic_t, ptr %44, i32 0, i32 5
  %46 = getelementptr inbounds nuw %struct.anon.0, ptr %45, i32 0, i32 1
  %47 = load i64, ptr %46, align 8, !tbaa !33
  %48 = load ptr, ptr %5, align 8, !tbaa !58
  %49 = getelementptr inbounds nuw %struct.H5T_atomic_t, ptr %48, i32 0, i32 5
  %50 = getelementptr inbounds nuw %struct.anon.0, ptr %49, i32 0, i32 2
  %51 = load i64, ptr %50, align 8, !tbaa !33
  %52 = call i64 @H5T__bit_find(ptr noundef %43, i64 noundef %47, i64 noundef %51, i32 noundef 0, i1 noundef zeroext true)
  %53 = icmp slt i64 %52, 0
  br i1 %53, label %54, label %58

54:                                               ; preds = %42
  %55 = load i64, ptr %7, align 8, !tbaa !12
  %56 = icmp ne i64 %55, 0
  %57 = select i1 %56, i32 2, i32 1
  store i32 %57, ptr %8, align 4, !tbaa !15
  br label %75

58:                                               ; preds = %42
  %59 = load ptr, ptr %4, align 8, !tbaa !39
  %60 = load ptr, ptr %5, align 8, !tbaa !58
  %61 = getelementptr inbounds nuw %struct.H5T_atomic_t, ptr %60, i32 0, i32 5
  %62 = getelementptr inbounds nuw %struct.anon.0, ptr %61, i32 0, i32 1
  %63 = load i64, ptr %62, align 8, !tbaa !33
  %64 = load ptr, ptr %5, align 8, !tbaa !58
  %65 = getelementptr inbounds nuw %struct.H5T_atomic_t, ptr %64, i32 0, i32 5
  %66 = getelementptr inbounds nuw %struct.anon.0, ptr %65, i32 0, i32 2
  %67 = load i64, ptr %66, align 8, !tbaa !33
  %68 = call i64 @H5T__bit_find(ptr noundef %59, i64 noundef %63, i64 noundef %67, i32 noundef 0, i1 noundef zeroext false)
  %69 = icmp slt i64 %68, 0
  br i1 %69, label %70, label %74

70:                                               ; preds = %58
  %71 = load i64, ptr %7, align 8, !tbaa !12
  %72 = icmp ne i64 %71, 0
  %73 = select i1 %72, i32 4, i32 3
  store i32 %73, ptr %8, align 4, !tbaa !15
  br label %74

74:                                               ; preds = %70, %58
  br label %75

75:                                               ; preds = %74, %54
  br label %120

76:                                               ; preds = %24
  call void @llvm.lifetime.start.p0(i64 1, ptr %9) #9
  %77 = load ptr, ptr %4, align 8, !tbaa !39
  %78 = load ptr, ptr %5, align 8, !tbaa !58
  %79 = getelementptr inbounds nuw %struct.H5T_atomic_t, ptr %78, i32 0, i32 5
  %80 = getelementptr inbounds nuw %struct.anon.0, ptr %79, i32 0, i32 1
  %81 = load i64, ptr %80, align 8, !tbaa !33
  %82 = load ptr, ptr %5, align 8, !tbaa !58
  %83 = getelementptr inbounds nuw %struct.H5T_atomic_t, ptr %82, i32 0, i32 5
  %84 = getelementptr inbounds nuw %struct.anon.0, ptr %83, i32 0, i32 2
  %85 = load i64, ptr %84, align 8, !tbaa !33
  %86 = call i64 @H5T__bit_find(ptr noundef %77, i64 noundef %81, i64 noundef %85, i32 noundef 0, i1 noundef zeroext false)
  %87 = icmp slt i64 %86, 0
  %88 = zext i1 %87 to i8
  store i8 %88, ptr %9, align 1, !tbaa !17
  %89 = load ptr, ptr %5, align 8, !tbaa !58
  %90 = getelementptr inbounds nuw %struct.H5T_atomic_t, ptr %89, i32 0, i32 5
  %91 = getelementptr inbounds nuw %struct.anon.0, ptr %90, i32 0, i32 6
  %92 = load i32, ptr %91, align 8, !tbaa !33
  %93 = icmp eq i32 2, %92
  br i1 %93, label %94, label %114

94:                                               ; preds = %76
  %95 = load i8, ptr %9, align 1, !tbaa !17, !range !19, !noundef !20
  %96 = trunc i8 %95 to i1
  br i1 %96, label %97, label %114

97:                                               ; preds = %94
  %98 = load ptr, ptr %4, align 8, !tbaa !39
  %99 = load ptr, ptr %5, align 8, !tbaa !58
  %100 = getelementptr inbounds nuw %struct.H5T_atomic_t, ptr %99, i32 0, i32 5
  %101 = getelementptr inbounds nuw %struct.anon.0, ptr %100, i32 0, i32 4
  %102 = load i64, ptr %101, align 8, !tbaa !33
  %103 = load ptr, ptr %5, align 8, !tbaa !58
  %104 = getelementptr inbounds nuw %struct.H5T_atomic_t, ptr %103, i32 0, i32 5
  %105 = getelementptr inbounds nuw %struct.anon.0, ptr %104, i32 0, i32 5
  %106 = load i64, ptr %105, align 8, !tbaa !33
  %107 = sub i64 %106, 1
  %108 = call i64 @H5T__bit_find(ptr noundef %98, i64 noundef %102, i64 noundef %107, i32 noundef 0, i1 noundef zeroext true)
  %109 = icmp slt i64 %108, 0
  br i1 %109, label %110, label %114

110:                                              ; preds = %97
  %111 = load i64, ptr %7, align 8, !tbaa !12
  %112 = icmp ne i64 %111, 0
  %113 = select i1 %112, i32 4, i32 3
  store i32 %113, ptr %8, align 4, !tbaa !15
  br label %119

114:                                              ; preds = %97, %94, %76
  %115 = load i8, ptr %9, align 1, !tbaa !17, !range !19, !noundef !20
  %116 = trunc i8 %115 to i1
  br i1 %116, label %117, label %118

117:                                              ; preds = %114
  store i32 5, ptr %8, align 4, !tbaa !15
  br label %118

118:                                              ; preds = %117, %114
  br label %119

119:                                              ; preds = %118, %110
  call void @llvm.lifetime.end.p0(i64 1, ptr %9) #9
  br label %120

120:                                              ; preds = %119, %75
  %121 = load ptr, ptr %6, align 8, !tbaa !60
  %122 = icmp ne ptr %121, null
  br i1 %122, label %123, label %126

123:                                              ; preds = %120
  %124 = load i64, ptr %7, align 8, !tbaa !12
  %125 = load ptr, ptr %6, align 8, !tbaa !60
  store i64 %124, ptr %125, align 8, !tbaa !12
  br label %126

126:                                              ; preds = %123, %120
  br label %127

127:                                              ; preds = %126, %16
  %128 = load i32, ptr %8, align 4, !tbaa !15
  call void @llvm.lifetime.end.p0(i64 4, ptr %8) #9
  call void @llvm.lifetime.end.p0(i64 8, ptr %7) #9
  ret i32 %128
}