; Function Attrs: nounwind uwtable
define range(i32 0, 6) i32 @H5T__conv_float_find_special(ptr noundef %0, ptr noundef readonly captures(none) %1, ptr noundef writeonly captures(address_is_null) %2) local_unnamed_addr #0 {
  %4 = load i8, ptr @H5T_init_g, align 1, !tbaa !3, !range !7, !noundef !8
  %5 = trunc nuw i8 %4 to i1
  %6 = load i8, ptr @H5_libterm_g, align 1, !range !7
  %7 = trunc nuw i8 %6 to i1
  %8 = xor i1 %7, true
  %9 = select i1 %5, i1 true, i1 %8
  br i1 %9, label %10, label %53, !prof !9

10:                                               ; preds = %3
  %11 = getelementptr inbounds nuw i8, ptr %1, i64 32
  %12 = load i64, ptr %11, align 8, !tbaa !32
  %13 = tail call i64 @H5T__bit_get_d(ptr noundef %0, i64 noundef %12, i64 noundef 1) #9
  %14 = getelementptr inbounds nuw i8, ptr %1, i64 64
  %15 = load i64, ptr %14, align 8, !tbaa !32
  %16 = getelementptr inbounds nuw i8, ptr %1, i64 72
  %17 = load i64, ptr %16, align 8, !tbaa !32
  %18 = tail call i64 @H5T__bit_find(ptr noundef %0, i64 noundef %15, i64 noundef %17, i32 noundef 0, i1 noundef zeroext true) #9
  %19 = icmp slt i64 %18, 0
  %20 = getelementptr inbounds nuw i8, ptr %1, i64 40
  %21 = load i64, ptr %20, align 8, !tbaa !32
  %22 = getelementptr inbounds nuw i8, ptr %1, i64 48
  %23 = load i64, ptr %22, align 8, !tbaa !32
  br i1 %19, label %24, label %36

24:                                               ; preds = %10
  %25 = tail call i64 @H5T__bit_find(ptr noundef %0, i64 noundef %21, i64 noundef %23, i32 noundef 0, i1 noundef zeroext true) #9
  %26 = icmp slt i64 %25, 0
  br i1 %26, label %27, label %29

27:                                               ; preds = %24
  %.not28 = icmp eq i64 %13, 0
  %28 = select i1 %.not28, i32 1, i32 2
  br label %51

29:                                               ; preds = %24
  %30 = load i64, ptr %20, align 8, !tbaa !32
  %31 = load i64, ptr %22, align 8, !tbaa !32
  %32 = tail call i64 @H5T__bit_find(ptr noundef %0, i64 noundef %30, i64 noundef %31, i32 noundef 0, i1 noundef zeroext false) #9
  %33 = icmp slt i64 %32, 0
  br i1 %33, label %34, label %51

34:                                               ; preds = %29
  %.not27 = icmp eq i64 %13, 0
  %35 = select i1 %.not27, i32 3, i32 4
  br label %51

36:                                               ; preds = %10
  %37 = tail call i64 @H5T__bit_find(ptr noundef %0, i64 noundef %21, i64 noundef %23, i32 noundef 0, i1 noundef zeroext false) #9
  %38 = icmp sgt i64 %37, -1
  %39 = getelementptr inbounds nuw i8, ptr %1, i64 80
  %40 = load i32, ptr %39, align 8, !tbaa !32
  %41 = icmp ne i32 %40, 2
  %brmerge = select i1 %41, i1 true, i1 %38
  br i1 %brmerge, label %50, label %42

42:                                               ; preds = %36
  %43 = load i64, ptr %14, align 8, !tbaa !32
  %44 = load i64, ptr %16, align 8, !tbaa !32
  %45 = add i64 %44, -1
  %46 = tail call i64 @H5T__bit_find(ptr noundef %0, i64 noundef %43, i64 noundef %45, i32 noundef 0, i1 noundef zeroext true) #9
  %47 = icmp slt i64 %46, 0
  br i1 %47, label %48, label %50

48:                                               ; preds = %42
  %.not = icmp eq i64 %13, 0
  %49 = select i1 %.not, i32 3, i32 4
  br label %51

50:                                               ; preds = %36, %42
  %spec.select = select i1 %38, i32 0, i32 5
  br label %51

51:                                               ; preds = %50, %48, %27, %34, %29
  %.1 = phi i32 [ %28, %27 ], [ %35, %34 ], [ 0, %29 ], [ %49, %48 ], [ %spec.select, %50 ]
  %.not29 = icmp eq ptr %2, null
  br i1 %.not29, label %53, label %52

52:                                               ; preds = %51
  store i64 %13, ptr %2, align 8, !tbaa !14
  br label %53

53:                                               ; preds = %51, %52, %3
  %.0 = phi i32 [ %.1, %52 ], [ %.1, %51 ], [ 0, %3 ]
  ret i32 %.0
}